Certificate:
    Data:
        Version: 3 (0x2)
        Serial Number: 1 (0x1)
        Signature Algorithm: sha1WithRSAEncryption
        Issuer: C=BA, ST=RS, L=Banja Luka, O=Elektrotehnicki fakultet, OU=ETF, CN=Tadija/emailAddress=tadija@gmail.com
        Validity
            Not Before: Apr 19 17:10:59 2024 GMT
            Not After : Apr 19 17:10:59 2025 GMT
        Subject: C=BA, ST=RS, O=Elektrotehnicki fakultet, OU=ETF, CN=tadija/emailAddress=tadijadobranic@gmail.com
        Subject Public Key Info:
            Public Key Algorithm: rsaEncryption
                Public-Key: (2048 bit)
                Modulus:
                    00:a3:d4:e9:8e:cb:bf:85:e5:1c:09:4d:47:cc:c6:
                    27:e9:64:3b:6d:6e:5e:b6:41:34:01:74:69:6a:88:
                    ff:48:f9:83:a7:7a:d2:47:82:47:dd:c0:4e:1f:db:
                    83:74:b6:bc:55:c6:9c:e4:e2:58:54:e1:d0:89:0f:
                    5b:cf:e5:86:41:92:ad:4c:c3:ed:86:29:ae:80:6e:
                    6d:e6:9c:da:9c:42:ba:03:a5:8a:85:5a:5d:83:af:
                    e9:16:fb:26:fb:eb:f3:c0:1d:76:d7:d0:01:93:3b:
                    ff:81:38:f5:62:84:e4:11:90:d5:6b:22:38:3d:f3:
                    cd:67:0c:2d:cc:5c:e8:06:b5:df:53:ac:fc:eb:f0:
                    6b:23:d8:b5:16:bc:c6:95:58:ab:8e:8d:ab:40:02:
                    99:57:68:56:9a:35:e2:96:eb:0e:5c:b5:f9:c6:c4:
                    f2:4c:29:d1:c9:de:73:99:df:27:3f:67:ae:3b:fb:
                    06:0a:2f:ac:f3:96:58:8d:de:5a:19:77:89:85:f6:
                    47:54:4b:88:d8:1f:79:1c:07:bc:5b:05:b6:54:9a:
                    d2:d6:47:a9:b0:14:ac:8e:5f:ba:e6:2c:22:bd:9c:
                    81:47:0b:d1:56:8e:8d:8a:a3:e4:40:45:5d:58:81:
                    4d:1a:27:e8:f7:fd:fe:9b:e8:17:59:84:b2:0a:7c:
                    e6:c9
                Exponent: 65537 (0x10001)
        X509v3 extensions:
            X509v3 Basic Constraints: 
                CA:FALSE
            X509v3 Key Usage: 
                Digital Signature
            X509v3 Extended Key Usage: 
                TLS Web Client Authentication, TLS Web Server Authentication
            Netscape Comment: 
                OpenSSL Generated Certificate
            X509v3 Subject Key Identifier: 
                B7:8D:15:92:AE:4D:C0:4E:EF:E1:B1:1A:29:34:7F:5C:54:40:93:7E
            X509v3 Authority Key Identifier: 
                C2:46:2B:51:56:2A:FE:12:39:4E:F4:88:7F:DD:6D:2F:A7:4F:1E:AF
            X509v3 CRL Distribution Points: 
                Full Name:
                  URI:http://192.168.21.89/rootcrl.pem
    Signature Algorithm: sha1WithRSAEncryption
    Signature Value:
        86:51:ed:c8:f5:7b:36:bc:15:c6:09:7e:85:f2:dc:e5:ad:89:
        ff:4b:c5:79:14:17:40:42:ca:c3:23:4f:4e:eb:6c:4b:37:a7:
        0b:8f:1d:e0:40:93:a0:93:84:a2:d7:46:11:13:dd:a2:cd:30:
        85:56:b4:d8:09:4e:39:9b:f6:1e:6b:b7:f9:4e:42:11:92:d3:
        36:bb:3c:07:fe:65:67:da:2c:a4:0c:cb:7a:c1:b1:a5:d4:13:
        df:1d:63:44:48:be:5e:15:90:f1:c5:51:ef:bb:82:db:75:c4:
        3c:20:ec:f5:76:9e:7e:5a:02:f0:fa:36:d2:e0:9e:d2:ae:9e:
        59:f5:f2:6f:16:9b:57:c9:8b:6a:5e:3c:70:60:b0:d9:d3:b6:
        da:b1:95:27:15:43:88:ff:d7:7c:81:4e:59:a2:cc:63:8e:58:
        36:c4:88:66:1c:89:1d:22:6b:ed:6b:96:96:45:36:28:50:a4:
        d7:f7:53:fa:ef:cc:93:b1:ec:09:5d:80:fe:c7:0c:77:fc:54:
        c8:5c:04:37:01:df:09:d7:8f:b5:53:28:78:c9:10:f8:91:b6:
        8a:d8:41:12:6d:65:3d:b3:01:8f:64:c5:18:65:10:21:d7:b2:
        82:b2:e3:64:72:f3:80:d7:03:d1:54:4e:59:46:71:6e:75:27:
        0b:e1:10:03
-----BEGIN CERTIFICATE-----
MIIEcDCCA1igAwIBAgIBATANBgkqhkiG9w0BAQUFADCBkjELMAkGA1UEBhMCQkEx
CzAJBgNVBAgTAlJTMRMwEQYDVQQHEwpCYW5qYSBMdWthMSEwHwYDVQQKExhFbGVr
dHJvdGVobmlja2kgZmFrdWx0ZXQxDDAKBgNVBAsTA0VURjEPMA0GA1UEAxMGVGFk
aWphMR8wHQYJKoZIhvcNAQkBFhB0YWRpamFAZ21haWwuY29tMB4XDTI0MDQxOTE3
MTA1OVoXDTI1MDQxOTE3MTA1OVowgYUxCzAJBgNVBAYTAkJBMQswCQYDVQQIEwJS
UzEhMB8GA1UEChMYRWxla3Ryb3RlaG5pY2tpIGZha3VsdGV0MQwwCgYDVQQLEwNF
VEYxDzANBgNVBAMTBnRhZGlqYTEnMCUGCSqGSIb3DQEJARYYdGFkaWphZG9icmFu
aWNAZ21haWwuY29tMIIBIjANBgkqhkiG9w0BAQEFAAOCAQ8AMIIBCgKCAQEAo9Tp
jsu/heUcCU1HzMYn6WQ7bW5etkE0AXRpaoj/SPmDp3rSR4JH3cBOH9uDdLa8Vcac
5OJYVOHQiQ9bz+WGQZKtTMPthimugG5t5pzanEK6A6WKhVpdg6/pFvsm++vzwB12
19ABkzv/gTj1YoTkEZDVayI4PfPNZwwtzFzoBrXfU6z86/BrI9i1FrzGlVirjo2r
QAKZV2hWmjXilusOXLX5xsTyTCnRyd5zmd8nP2euO/sGCi+s85ZYjd5aGXeJhfZH
VEuI2B95HAe8WwW2VJrS1kepsBSsjl+65iwivZyBRwvRVo6NiqPkQEVdWIFNGifo
9/3+m+gXWYSyCnzmyQIDAQABo4HbMIHYMAkGA1UdEwQCMAAwCwYDVR0PBAQDAgeA
MB0GA1UdJQQWMBQGCCsGAQUFBwMCBggrBgEFBQcDATAsBglghkgBhvhCAQ0EHxYd
T3BlblNTTCBHZW5lcmF0ZWQgQ2VydGlmaWNhdGUwHQYDVR0OBBYEFLeNFZKuTcBO
7+GxGik0f1xUQJN+MB8GA1UdIwQYMBaAFMJGK1FWKv4SOU70iH/dbS+nTx6vMDEG
A1UdHwQqMCgwJqAkoCKGIGh0dHA6Ly8xOTIuMTY4LjIxLjg5L3Jvb3RjcmwucGVt
MA0GCSqGSIb3DQEBBQUAA4IBAQCGUe3I9Xs2vBXGCX6F8tzlrYn/S8V5FBdAQsrD
I09O62xLN6cLjx3gQJOgk4Si10YRE92izTCFVrTYCU45m/Yea7f5TkIRktM2uzwH
/mVn2iykDMt6wbGl1BPfHWNESL5eFZDxxVHvu4LbdcQ8IOz1dp5+WgLw+jbS4J7S
rp5Z9fJvFptXyYtqXjxwYLDZ07basZUnFUOI/9d8gU5Zosxjjlg2xIhmHIkdImvt
a5aWRTYoUKTX91P678yTsewJXYD+xwx3/FTIXAQ3Ad8J14+1Uyh4yRD4kbaK2EES
bWU9swGPZMUYZRAh17KCsuNkcvOA1wPRVE5ZRnFudScL4RAD
-----END CERTIFICATE-----
