Certificate:
    Data:
        Version: 3 (0x2)
        Serial Number: 7 (0x7)
        Signature Algorithm: sha1WithRSAEncryption
        Issuer: C=BA, ST=RS, L=Banja Luka, O=Elektrotehnicki fakultet, OU=ETF, CN=Tadija/emailAddress=tadija@gmail.com
        Validity
            Not Before: Apr 18 08:16:31 2024 GMT
            Not After : Apr 18 08:16:31 2025 GMT
        Subject: C=BA, ST=RS, O=Elektrotehnicki fakultet, OU=ETF, CN=Gvozden/emailAddress=gvozden
        Subject Public Key Info:
            Public Key Algorithm: rsaEncryption
                Public-Key: (2048 bit)
                Modulus:
                    00:c3:5b:1f:8e:b8:6b:67:3d:61:e0:47:7d:8d:ff:
                    19:30:c6:fa:59:dd:9c:be:cd:93:af:54:01:da:52:
                    af:5c:a7:b1:f2:3c:43:57:f8:0a:b8:e4:a4:ee:ce:
                    ab:84:b5:5f:46:05:58:c2:2b:95:55:cf:ba:68:f8:
                    96:f0:12:cf:5c:a2:bc:5e:3e:85:90:2d:54:b0:b4:
                    a9:29:73:ad:7b:07:9f:67:4e:3c:54:12:d2:27:40:
                    92:3c:eb:f8:8d:75:7d:b9:36:7f:94:41:5a:48:7e:
                    33:81:7f:88:04:ed:fa:21:13:fc:64:30:c8:71:e5:
                    0d:4d:09:05:fc:9e:68:f2:b7:03:8c:0c:bc:17:1e:
                    bb:eb:e3:5c:4f:64:2f:b9:0d:54:3c:0f:97:91:1a:
                    47:0a:60:37:71:2a:2b:2a:99:c2:d0:78:d1:1d:f3:
                    b9:fd:6e:52:1a:ea:9e:32:b4:74:fc:0f:b3:9b:9f:
                    95:aa:ed:4e:b7:c9:70:9e:ef:01:89:5d:5a:c3:9c:
                    b4:c8:9b:1c:04:c5:09:e5:bb:37:3a:3e:2b:0c:a6:
                    f7:ab:77:5a:c8:56:01:bc:db:de:42:ea:cd:22:2f:
                    b7:6a:88:7e:50:58:d4:07:30:d9:ab:53:aa:05:7d:
                    8c:9d:c3:67:ea:d3:29:bb:67:5a:f5:a2:59:62:ee:
                    c6:d3
                Exponent: 65537 (0x10001)
        X509v3 extensions:
            X509v3 Basic Constraints: 
                CA:FALSE
            X509v3 Key Usage: 
                Digital Signature
            X509v3 Extended Key Usage: 
                TLS Web Client Authentication, TLS Web Server Authentication
            Netscape Comment: 
                OpenSSL Generated Certificate
            X509v3 Subject Key Identifier: 
                FD:F1:22:1D:63:C7:DD:66:8E:CB:35:EA:22:19:40:02:45:9A:0A:84
            X509v3 Authority Key Identifier: 
                C2:46:2B:51:56:2A:FE:12:39:4E:F4:88:7F:DD:6D:2F:A7:4F:1E:AF
            X509v3 CRL Distribution Points: 
                Full Name:
                  URI:http://192.168.21.89/rootcrl.pem
    Signature Algorithm: sha1WithRSAEncryption
    Signature Value:
        95:dc:c4:02:6c:6a:38:ea:6b:ce:13:1d:c0:ae:81:9e:90:54:
        b2:39:42:79:f3:52:34:e2:58:64:93:ea:75:9c:bd:88:7f:16:
        1d:f8:52:7c:c8:8b:2b:e2:64:dc:d3:ff:f2:03:94:d3:2e:7a:
        ef:fa:9d:eb:8c:6b:1a:a8:50:5d:85:be:f5:fd:aa:a3:ef:b3:
        53:a9:5d:99:f7:c5:1e:fe:a8:11:c0:6a:16:54:ef:cb:b3:20:
        be:b9:b5:76:f6:0d:38:5a:8a:c3:64:bc:19:2f:00:58:d0:fd:
        0d:84:a7:bd:73:92:ef:0a:c9:60:8d:37:4d:80:0f:4a:af:c5:
        dd:65:51:eb:38:99:1e:58:ed:82:7b:21:ec:ac:00:5f:c4:d8:
        ee:86:12:10:1a:0e:d5:f1:b7:47:80:68:da:68:b1:20:b6:0a:
        8d:4e:7d:15:39:bd:37:75:7f:4e:bc:ab:38:de:42:3f:31:c5:
        e8:3a:88:f0:ff:c1:9b:e0:32:46:f6:31:0d:09:b9:d4:c0:55:
        c0:9e:5b:bc:6a:ab:a3:d7:10:57:42:b1:d2:8a:54:4c:49:3d:
        e7:68:2c:45:1c:d5:6d:57:00:89:0e:dd:be:ff:86:8c:e7:46:
        ed:7a:af:6f:79:09:75:b5:8f:cc:4c:79:da:7b:2a:61:64:eb:
        a5:1e:bb:f2
-----BEGIN CERTIFICATE-----
MIIEXzCCA0egAwIBAgIBBzANBgkqhkiG9w0BAQUFADCBkjELMAkGA1UEBhMCQkEx
CzAJBgNVBAgTAlJTMRMwEQYDVQQHEwpCYW5qYSBMdWthMSEwHwYDVQQKExhFbGVr
dHJvdGVobmlja2kgZmFrdWx0ZXQxDDAKBgNVBAsTA0VURjEPMA0GA1UEAxMGVGFk
aWphMR8wHQYJKoZIhvcNAQkBFhB0YWRpamFAZ21haWwuY29tMB4XDTI0MDQxODA4
MTYzMVoXDTI1MDQxODA4MTYzMVowdTELMAkGA1UEBhMCQkExCzAJBgNVBAgTAlJT
MSEwHwYDVQQKExhFbGVrdHJvdGVobmlja2kgZmFrdWx0ZXQxDDAKBgNVBAsTA0VU
RjEQMA4GA1UEAxMHR3ZvemRlbjEWMBQGCSqGSIb3DQEJARYHZ3ZvemRlbjCCASIw
DQYJKoZIhvcNAQEBBQADggEPADCCAQoCggEBAMNbH464a2c9YeBHfY3/GTDG+lnd
nL7Nk69UAdpSr1ynsfI8Q1f4CrjkpO7Oq4S1X0YFWMIrlVXPumj4lvASz1yivF4+
hZAtVLC0qSlzrXsHn2dOPFQS0idAkjzr+I11fbk2f5RBWkh+M4F/iATt+iET/GQw
yHHlDU0JBfyeaPK3A4wMvBceu+vjXE9kL7kNVDwPl5EaRwpgN3EqKyqZwtB40R3z
uf1uUhrqnjK0dPwPs5uflartTrfJcJ7vAYldWsOctMibHATFCeW7Nzo+Kwym96t3
WshWAbzb3kLqzSIvt2qIflBY1Acw2atTqgV9jJ3DZ+rTKbtnWvWiWWLuxtMCAwEA
AaOB2zCB2DAJBgNVHRMEAjAAMAsGA1UdDwQEAwIHgDAdBgNVHSUEFjAUBggrBgEF
BQcDAgYIKwYBBQUHAwEwLAYJYIZIAYb4QgENBB8WHU9wZW5TU0wgR2VuZXJhdGVk
IENlcnRpZmljYXRlMB0GA1UdDgQWBBT98SIdY8fdZo7LNeoiGUACRZoKhDAfBgNV
HSMEGDAWgBTCRitRVir+EjlO9Ih/3W0vp08erzAxBgNVHR8EKjAoMCagJKAihiBo
dHRwOi8vMTkyLjE2OC4yMS44OS9yb290Y3JsLnBlbTANBgkqhkiG9w0BAQUFAAOC
AQEAldzEAmxqOOprzhMdwK6BnpBUsjlCefNSNOJYZJPqdZy9iH8WHfhSfMiLK+Jk
3NP/8gOU0y567/qd64xrGqhQXYW+9f2qo++zU6ldmffFHv6oEcBqFlTvy7Mgvrm1
dvYNOFqKw2S8GS8AWND9DYSnvXOS7wrJYI03TYAPSq/F3WVR6ziZHljtgnsh7KwA
X8TY7oYSEBoO1fG3R4Bo2mixILYKjU59FTm9N3V/TryrON5CPzHF6DqI8P/Bm+Ay
RvYxDQm51MBVwJ5bvGqro9cQV0Kx0opUTEk952gsRRzVbVcAiQ7dvv+GjOdG7Xqv
b3kJdbWPzEx52nsqYWTrpR678g==
-----END CERTIFICATE-----
